; Function Attrs: mustprogress nofree norecurse nosync nounwind willreturn memory(argmem: write) uwtable
define dso_local void @cr_init(ptr nocapture noundef writeonly %0, ptr noundef %1, ptr noundef %2) local_unnamed_addr #3 {
  %4 = getelementptr inbounds i8, ptr %0, i64 16
  tail call void @llvm.memset.p0.i64(ptr noundef nonnull align 8 dereferenceable(16) %0, i8 0, i64 16, i1 false)
  store ptr %1, ptr %4, align 8
  %.not = icmp eq ptr %2, null
  %5 = select i1 %.not, ptr @cr_default_realloc, ptr %2
  %6 = getelementptr inbounds i8, ptr %0, i64 24
  store ptr %5, ptr %6, align 8
  ret void
}